; Function Attrs: mustprogress uwtable
define dso_local void @_ZN3net21QuicSentPacketManager16SetSendAlgorithmENS_21CongestionControlTypeE(ptr noundef nonnull align 8 dereferenceable(776) %this, i32 noundef %congestion_control_type) local_unnamed_addr #0 align 2 {
entry:
  %clock_ = getelementptr inbounds i8, ptr %this, i64 216
  %0 = load ptr, ptr %clock_, align 8
  %rtt_stats_ = getelementptr inbounds i8, ptr %this, i64 264
  %stats_ = getelementptr inbounds i8, ptr %this, i64 224
  %1 = load ptr, ptr %stats_, align 8
  %initial_congestion_window_ = getelementptr inbounds i8, ptr %this, i64 256
  %2 = load i64, ptr %initial_congestion_window_, align 8
  %call = tail call noundef ptr @_ZN3net22SendAlgorithmInterface6CreateEPKNS_9QuicClockEPKNS_8RttStatsENS_21CongestionControlTypeEPNS_19QuicConnectionStatsEm(ptr noundef %0, ptr noundef nonnull %rtt_stats_, i32 noundef %congestion_control_type, ptr noundef %1, i64 noundef %2)
  %send_algorithm_.i = getelementptr inbounds i8, ptr %this, i64 488
  %3 = load ptr, ptr %send_algorithm_.i, align 8
  store ptr %call, ptr %send_algorithm_.i, align 8
  %tobool.not.i.i.i = icmp eq ptr %3, null
  br i1 %tobool.not.i.i.i, label %_ZN3net21QuicSentPacketManager16SetSendAlgorithmEPNS_22SendAlgorithmInterfaceE.exit, label %_ZNKSt14default_deleteIN3net22SendAlgorithmInterfaceEEclEPS1_.exit.i.i.i

_ZNKSt14default_deleteIN3net22SendAlgorithmInterfaceEEclEPS1_.exit.i.i.i: ; preds = %entry
  %vtable.i.i.i.i = load ptr, ptr %3, align 8
  %vfn.i.i.i.i = getelementptr inbounds i8, ptr %vtable.i.i.i.i, i64 8
  %4 = load ptr, ptr %vfn.i.i.i.i, align 8
  tail call void %4(ptr noundef nonnull align 8 dereferenceable(8) %3) #16
  br label %_ZN3net21QuicSentPacketManager16SetSendAlgorithmEPNS_22SendAlgorithmInterfaceE.exit

_ZN3net21QuicSentPacketManager16SetSendAlgorithmEPNS_22SendAlgorithmInterfaceE.exit: ; preds = %entry, %_ZNKSt14default_deleteIN3net22SendAlgorithmInterfaceEEclEPS1_.exit.i.i.i
  %pacing_sender_.i = getelementptr inbounds i8, ptr %this, i64 680
  tail call void @_ZN3net12PacingSender10set_senderEPNS_22SendAlgorithmInterfaceE(ptr noundef nonnull align 8 dereferenceable(41) %pacing_sender_.i, ptr noundef %call)
  ret void
}